Certificate:
    Data:
        Version: 3 (0x2)
        Serial Number: 4096 (0x1000)
        Signature Algorithm: md5WithRSAEncryption
        Issuer: C=US, ST=NY, L=New York City, O=None, OU=None, CN=Bob/emailAddress=bob
        Validity
            Not Before: Mar 25 01:55:57 2026 GMT
            Not After : Mar 25 01:55:57 2027 GMT
        Subject: C=US, ST=NY, O=None, OU=None, CN=Bob/emailAddress=bob
        Subject Public Key Info:
            Public Key Algorithm: rsaEncryption
                Public-Key: (4096 bit)
                Modulus:
                    00:ab:8f:eb:0d:83:5c:e8:d9:e8:03:ab:69:90:14:
                    fa:89:38:37:a9:46:d6:c3:d1:cb:fd:61:0c:73:af:
                    32:3e:55:78:f9:d4:37:04:9b:b4:d2:c6:fe:d5:12:
                    0a:3c:89:c8:72:0a:ba:98:f4:91:24:4c:88:b8:e1:
                    b8:ea:ea:73:e0:16:47:99:47:90:74:f6:75:7f:ab:
                    1e:72:23:38:f7:41:c0:7b:93:8b:dc:31:64:97:29:
                    e0:42:e7:12:b0:bb:18:8f:e2:85:e6:32:8c:62:93:
                    f7:8e:b9:c5:0c:3a:08:55:63:90:a0:f4:e2:c3:69:
                    b4:98:50:71:df:d7:f7:e3:1a:bf:b9:ad:39:79:4c:
                    2b:e6:5c:fb:99:48:0f:44:a4:82:57:9f:f4:f8:3a:
                    db:77:66:a5:a1:59:89:26:57:f9:2f:11:49:d5:20:
                    41:7a:ce:93:58:42:97:f2:07:ae:9b:8a:30:a6:80:
                    6f:80:63:98:ae:95:ea:5c:88:14:16:d8:78:53:cd:
                    0f:1f:2f:ce:99:1d:3b:fc:f6:5a:9d:1d:ae:6b:fe:
                    a6:40:13:30:57:9f:ac:b1:ea:38:05:41:ea:46:bb:
                    b7:c6:64:9c:31:43:41:f0:34:43:7a:c5:59:57:16:
                    da:36:9a:f5:6a:1b:ef:3a:7d:a0:b8:97:c4:c1:09:
                    b4:c0:b4:e8:15:91:12:2b:d0:53:e2:d0:c6:83:cb:
                    ee:ed:bf:06:5a:fa:29:74:89:4f:17:bb:46:46:1f:
                    59:b4:18:9b:29:f1:55:57:87:ed:7d:2f:11:7f:21:
                    0a:2c:b6:45:03:9d:bf:8b:e6:88:e0:15:ee:30:b9:
                    d9:1d:d7:cf:bb:18:ca:48:d5:21:31:a5:7c:d0:e2:
                    c7:18:96:79:a8:97:52:10:03:ff:ab:0c:15:78:ab:
                    a8:33:ee:90:f7:f5:74:e8:b5:34:be:49:3f:04:7a:
                    60:01:fc:cf:87:b2:67:c8:05:63:dd:bb:7a:84:d1:
                    e6:da:83:61:4f:f1:a4:2e:46:03:31:de:a4:dc:4e:
                    02:6d:25:a2:f3:e7:b6:f8:b2:cb:bc:9d:65:8b:ec:
                    8c:99:3c:1e:b7:b8:2b:3c:03:b3:75:d8:ee:10:8f:
                    6e:9f:7a:83:e4:9e:4a:b1:13:a7:4a:39:40:5e:c6:
                    3d:c4:1b:f8:5c:f9:9f:07:3f:3d:89:1e:98:7c:bb:
                    b5:16:a4:b3:dd:18:ba:51:a2:8a:24:49:f0:69:79:
                    a2:cd:ca:03:43:a7:f5:a4:9b:a1:36:a8:53:e2:ba:
                    ad:1a:bd:6f:bf:68:5c:bd:c4:9a:eb:39:cb:16:bb:
                    12:cb:30:db:38:a6:9f:12:5e:1d:5b:fe:9a:70:5b:
                    2c:e1:03
                Exponent: 65537 (0x10001)
        X509v3 extensions:
            X509v3 Basic Constraints: 
                CA:FALSE
            Netscape Comment: 
                OpenSSL Generated Certificate
            X509v3 Subject Key Identifier: 
                49:87:C7:D8:0D:6D:05:34:C0:B3:A5:AE:45:14:40:9A:0B:CE:25:CB
            X509v3 Authority Key Identifier: 
                keyid:22:6B:94:F7:DE:F9:18:97:5B:72:21:53:F1:99:F8:AF:94:78:3E:A0
                DirName:/C=US/ST=NY/L=New York City/O=None/OU=None/CN=Bob/emailAddress=bob
                serial:17:7D:E3:57:AF:BE:49:68:A3:6F:5E:C1:EA:EF:67:EC:EE:B5:35:9B
    Signature Algorithm: md5WithRSAEncryption
    Signature Value:
        2e:85:a0:e8:1b:30:60:61:9f:37:b6:0b:15:4f:3f:df:72:48:
        2b:d0:db:3d:84:91:b8:2e:ed:25:05:1c:9e:a0:11:15:39:8f:
        4a:b6:0a:d1:97:f1:80:ad:0e:16:77:ec:8e:b5:c4:c3:c4:ca:
        6a:f4:5e:19:eb:9c:0e:72:ba:06:9f:f2:27:bd:ec:94:ea:24:
        32:89:e9:4e:1d:13:24:eb:72:0f:2c:34:63:64:a2:10:a1:42:
        e6:a5:56:90:5d:84:3d:51:a3:33:0a:19:bc:8a:12:64:0b:2f:
        47:4b:55:a8:e0:32:5f:16:66:ae:fc:ae:ff:87:52:51:27:e1:
        3d:fa:67:82:a8:0f:36:c5:90:72:73:84:5a:c3:76:48:de:30:
        80:71:40:5f:dc:90:7b:71:00:ae:42:f9:1b:b8:7f:2d:fe:76:
        09:48:b7:49:14:84:03:77:27:5d:71:0b:42:76:d4:6a:05:74:
        42:19:8c:75:55:7f:8f:1c:89:00:e5:a6:64:3f:ad:42:11:34:
        91:f4:0e:ec:7b:4d:f8:85:16:07:f3:9b:9b:c8:0b:d2:f1:c2:
        55:02:7b:f9:81:fd:eb:b0:d2:6f:a6:2f:96:6b:57:01:9c:a6:
        de:96:c8:eb:18:88:4e:0b:1a:d6:88:a3:e4:fd:53:8c:e9:91:
        a0:a0:c3:b2:d4:00:ac:60:81:c6:df:c7:5c:24:2f:3c:f6:ba:
        5e:8a:d7:4b:02:70:b2:cf:8f:dc:ba:0b:ca:c8:fc:00:d9:bd:
        47:48:3e:2b:00:b2:d5:1a:01:76:7d:8b:cb:2f:0a:b7:5e:a2:
        5c:34:c9:a8:0a:9e:ce:08:9f:0f:ea:a3:66:57:f6:55:61:da:
        68:a0:b3:19:14:ab:1f:44:14:18:b2:49:9f:c9:43:ce:40:86:
        80:e4:0b:cf:51:52:8c:61:25:86:25:82:8d:3b:29:d2:a8:bb:
        01:f3:42:19:8c:c3:ad:6b:51:ff:b9:52:3b:bf:60:f8:03:07:
        b5:d0:a3:4f:6d:f8:af:80:5e:f5:13:e2:8d:e2:93:05:a6:bf:
        6b:55:0e:af:a3:88:8e:88:5e:7b:5f:3a:8d:0b:a3:d2:63:27:
        fc:45:fb:09:1b:6f:02:b2:bc:59:c0:6d:31:5e:f8:3f:a5:02:
        f6:f4:57:7d:be:6e:0f:e7:f0:8a:10:b4:7f:66:fb:04:e7:96:
        46:93:61:a0:bd:5f:94:e9:ec:fd:4b:c9:28:c8:43:6b:48:fe:
        c0:6a:5c:33:6a:cd:93:47:68:c9:29:7b:44:e9:6f:f8:1a:c2:
        20:48:6a:a7:19:80:7c:7a:94:8b:56:c1:64:f5:dd:7c:33:a1:
        c6:7a:a2:20:f2:54:c9:b9
-----BEGIN CERTIFICATE-----
MIIGWDCCBECgAwIBAgICEAAwDQYJKoZIhvcNAQEEBQAwcjELMAkGA1UEBhMCVVMx
CzAJBgNVBAgMAk5ZMRYwFAYDVQQHDA1OZXcgWW9yayBDaXR5MQ0wCwYDVQQKDARO
b25lMQ0wCwYDVQQLDAROb25lMQwwCgYDVQQDDANCb2IxEjAQBgkqhkiG9w0BCQEW
A2JvYjAeFw0yNjAzMjUwMTU1NTdaFw0yNzAzMjUwMTU1NTdaMFoxCzAJBgNVBAYT
AlVTMQswCQYDVQQIDAJOWTENMAsGA1UECgwETm9uZTENMAsGA1UECwwETm9uZTEM
MAoGA1UEAwwDQm9iMRIwEAYJKoZIhvcNAQkBFgNib2IwggIiMA0GCSqGSIb3DQEB
AQUAA4ICDwAwggIKAoICAQCrj+sNg1zo2egDq2mQFPqJODepRtbD0cv9YQxzrzI+
VXj51DcEm7TSxv7VEgo8ichyCrqY9JEkTIi44bjq6nPgFkeZR5B09nV/qx5yIzj3
QcB7k4vcMWSXKeBC5xKwuxiP4oXmMoxik/eOucUMOghVY5Cg9OLDabSYUHHf1/fj
Gr+5rTl5TCvmXPuZSA9EpIJXn/T4Ott3ZqWhWYkmV/kvEUnVIEF6zpNYQpfyB66b
ijCmgG+AY5iulepciBQW2HhTzQ8fL86ZHTv89lqdHa5r/qZAEzBXn6yx6jgFQepG
u7fGZJwxQ0HwNEN6xVlXFto2mvVqG+86faC4l8TBCbTAtOgVkRIr0FPi0MaDy+7t
vwZa+il0iU8Xu0ZGH1m0GJsp8VVXh+19LxF/IQostkUDnb+L5ojgFe4wudkd18+7
GMpI1SExpXzQ4scYlnmol1IQA/+rDBV4q6gz7pD39XTotTS+ST8EemAB/M+HsmfI
BWPdu3qE0ebag2FP8aQuRgMx3qTcTgJtJaLz57b4ssu8nWWL7IyZPB63uCs8A7N1
2O4Qj26feoPknkqxE6dKOUBexj3EG/hc+Z8HPz2JHph8u7UWpLPdGLpRoookSfBp
eaLNygNDp/Wkm6E2qFPiuq0avW+/aFy9xJrrOcsWuxLLMNs4pp8SXh1b/ppwWyzh
AwIDAQABo4IBDjCCAQowCQYDVR0TBAIwADAsBglghkgBhvhCAQ0EHxYdT3BlblNT
TCBHZW5lcmF0ZWQgQ2VydGlmaWNhdGUwHQYDVR0OBBYEFEmHx9gNbQU0wLOlrkUU
QJoLziXLMIGvBgNVHSMEgacwgaSAFCJrlPfe+RiXW3IhU/GZ+K+UeD6goXakdDBy
MQswCQYDVQQGEwJVUzELMAkGA1UECAwCTlkxFjAUBgNVBAcMDU5ldyBZb3JrIENp
dHkxDTALBgNVBAoMBE5vbmUxDTALBgNVBAsMBE5vbmUxDDAKBgNVBAMMA0JvYjES
MBAGCSqGSIb3DQEJARYDYm9ighQXfeNXr75JaKNvXsHq72fs7rU1mzANBgkqhkiG
9w0BAQQFAAOCAgEALoWg6BswYGGfN7YLFU8/33JIK9DbPYSRuC7tJQUcnqARFTmP
SrYK0ZfxgK0OFnfsjrXEw8TKavReGeucDnK6Bp/yJ73slOokMonpTh0TJOtyDyw0
Y2SiEKFC5qVWkF2EPVGjMwoZvIoSZAsvR0tVqOAyXxZmrvyu/4dSUSfhPfpngqgP
NsWQcnOEWsN2SN4wgHFAX9yQe3EArkL5G7h/Lf52CUi3SRSEA3cnXXELQnbUagV0
QhmMdVV/jxyJAOWmZD+tQhE0kfQO7HtN+IUWB/Obm8gL0vHCVQJ7+YH967DSb6Yv
lmtXAZym3pbI6xiITgsa1oij5P1TjOmRoKDDstQArGCBxt/HXCQvPPa6XorXSwJw
ss+P3LoLysj8ANm9R0g+KwCy1RoBdn2Lyy8Kt16iXDTJqAqezgifD+qjZlf2VWHa
aKCzGRSrH0QUGLJJn8lDzkCGgOQLz1FSjGElhiWCjTsp0qi7AfNCGYzDrWtR/7lS
O79g+AMHtdCjT234r4Be9RPijeKTBaa/a1UOr6OIjohee186jQuj0mMn/EX7CRtv
ArK8WcBtMV74P6UC9vRXfb5uD+fwihC0f2b7BOeWRpNhoL1flOns/UvJKMhDa0j+
wGpcM2rNk0doySl7ROlv+BrCIEhqpxmAfHqUi1bBZPXdfDOhxnqiIPJUybk=
-----END CERTIFICATE-----
